target datalayout = "e-m:e-p270:32:32-p271:32:32-p272:64:64-i64:64-i128:128-f80:128-n8:16:32:64-S128"
target triple = "x86_64-pc-linux-gnu"

%"class.std::__cxx11::basic_string" = type { %"struct.std::__cxx11::basic_string<char>::_Alloc_hider", i64, %union.anon }
%"struct.std::__cxx11::basic_string<char>::_Alloc_hider" = type { ptr }
%union.anon = type { i64, [8 x i8] }
%"class.opencc::Optional" = type { i8, %"class.std::__cxx11::basic_string" }

@_Z14outputFileNameB5cxx11 = dso_local global %"class.opencc::Optional" zeroinitializer, align 8
@stdout = external global ptr, align 8
@.str.10 = private unnamed_addr constant [2 x i8] c"w\00", align 1
@_ZTIN6opencc15FileNotWritableE = linkonce_odr dso_local constant { ptr, ptr, ptr } { ptr getelementptr inbounds (ptr, ptr @_ZTVN10__cxxabiv120__si_class_type_infoE, i64 2), ptr @_ZTSN6opencc15FileNotWritableE, ptr @_ZTIN6opencc9ExceptionE }, comdat, align 8

; Function Attrs: mustprogress nounwind uwtable
define linkonce_odr dso_local noundef nonnull align 8 dereferenceable(32) ptr @_ZNK6opencc8OptionalINSt7__cxx1112basic_stringIcSt11char_traitsIcESaIcEEEE3GetEv(ptr noundef nonnull align 8 dereferenceable(40) %0) #4 comdat align 2 {
  %2 = alloca ptr, align 8
  store ptr %0, ptr %2, align 8
  %3 = load ptr, ptr %2, align 8
  %4 = getelementptr inbounds %"class.opencc::Optional", ptr %3, i32 0, i32 1
  ret ptr %4
}

; Function Attrs: mustprogress nounwind uwtable
define linkonce_odr dso_local noundef zeroext i1 @_ZNK6opencc8OptionalINSt7__cxx1112basic_stringIcSt11char_traitsIcESaIcEEEE6IsNullEv(ptr noundef nonnull align 8 dereferenceable(40) %0) #4 comdat align 2 {
  %2 = alloca ptr, align 8
  store ptr %0, ptr %2, align 8
  %3 = load ptr, ptr %2, align 8
  %4 = getelementptr inbounds %"class.opencc::Optional", ptr %3, i32 0, i32 0
  %5 = load i8, ptr %4, align 8
  %6 = trunc i8 %5 to i1
  ret i1 %6
}

; Function Attrs: mustprogress uwtable
define dso_local noundef ptr @_Z15GetOutputStreamv() #6 personality ptr @__gxx_personality_v0 {
  %1 = alloca ptr, align 8
  %2 = alloca ptr, align 8
  %3 = alloca ptr, align 8
  %4 = alloca i32, align 4
  %5 = call noundef zeroext i1 @_ZNK6opencc8OptionalINSt7__cxx1112basic_stringIcSt11char_traitsIcESaIcEEEE6IsNullEv(ptr noundef nonnull align 8 dereferenceable(40) @_Z14outputFileNameB5cxx11)
  br i1 %5, label %6, label %8

6:                                                ; preds = %0
  %7 = load ptr, ptr @stdout, align 8
  store ptr %7, ptr %1, align 8
  br label %25

8:                                                ; preds = %0
  %9 = call noundef nonnull align 8 dereferenceable(32) ptr @_ZNK6opencc8OptionalINSt7__cxx1112basic_stringIcSt11char_traitsIcESaIcEEEE3GetEv(ptr noundef nonnull align 8 dereferenceable(40) @_Z14outputFileNameB5cxx11)
  %10 = call noundef ptr @_ZNKSt7__cxx1112basic_stringIcSt11char_traitsIcESaIcEE5c_strEv(ptr noundef nonnull align 8 dereferenceable(32) %9) #3
  %11 = call noalias ptr @fopen(ptr noundef %10, ptr noundef @.str.10)
  store ptr %11, ptr %2, align 8
  %12 = load ptr, ptr %2, align 8
  %13 = icmp ne ptr %12, null
  br i1 %13, label %23, label %14

14:                                               ; preds = %8
  %15 = call ptr @__cxa_allocate_exception(i64 40) #3
  %16 = invoke noundef nonnull align 8 dereferenceable(32) ptr @_ZNK6opencc8OptionalINSt7__cxx1112basic_stringIcSt11char_traitsIcESaIcEEEE3GetEv(ptr noundef nonnull align 8 dereferenceable(40) @_Z14outputFileNameB5cxx11)
          to label %17 unwind label %19

17:                                               ; preds = %14
  invoke void @_ZN6opencc15FileNotWritableC2ERKNSt7__cxx1112basic_stringIcSt11char_traitsIcESaIcEEE(ptr noundef nonnull align 8 dereferenceable(40) %15, ptr noundef nonnull align 8 dereferenceable(32) %16)
          to label %18 unwind label %19

18:                                               ; preds = %17
  call void @__cxa_throw(ptr %15, ptr @_ZTIN6opencc15FileNotWritableE, ptr @_ZN6opencc15FileNotWritableD2Ev) #17
  unreachable

19:                                               ; preds = %17, %14
  %20 = landingpad { ptr, i32 }
          cleanup
  %21 = extractvalue { ptr, i32 } %20, 0
  store ptr %21, ptr %3, align 8
  %22 = extractvalue { ptr, i32 } %20, 1
  store i32 %22, ptr %4, align 4
  call void @__cxa_free_exception(ptr %15) #3
  br label %27

23:                                               ; preds = %8
  %24 = load ptr, ptr %2, align 8
  store ptr %24, ptr %1, align 8
  br label %25

25:                                               ; preds = %23, %6
  %26 = load ptr, ptr %1, align 8
  ret ptr %26

27:                                               ; preds = %19
  %28 = load ptr, ptr %3, align 8
  %29 = load i32, ptr %4, align 4
  %30 = insertvalue { ptr, i32 } poison, ptr %28, 0
  %31 = insertvalue { ptr, i32 } %30, i32 %29, 1
  resume { ptr, i32 } %31
}