; Function Attrs: mustprogress uwtable
define dso_local noundef ptr @_Z15GetOutputStreamv() local_unnamed_addr #5 personality ptr @__gxx_personality_v0 {
  %1 = load i8, ptr @_Z14outputFileNameB5cxx11, align 8
  %2 = trunc i8 %1 to i1
  br i1 %2, label %3, label %5

3:                                                ; preds = %0
  %4 = load ptr, ptr @stdout, align 8
  br label %13

5:                                                ; preds = %0
  %6 = tail call noundef ptr @_ZNKSt7__cxx1112basic_stringIcSt11char_traitsIcESaIcEE5c_strEv(ptr noundef nonnull align 8 dereferenceable(32) getelementptr inbounds (%"class.opencc::Optional", ptr @_Z14outputFileNameB5cxx11, i64 0, i32 1, i32 0, i32 0)) #25
  %7 = tail call noalias ptr @fopen(ptr noundef %6, ptr noundef nonnull @.str.10)
  %.not = icmp eq ptr %7, null
  br i1 %.not, label %8, label %13

8:                                                ; preds = %5
  %9 = tail call ptr @__cxa_allocate_exception(i64 40) #25
  invoke void @_ZN6opencc15FileNotWritableC2ERKNSt7__cxx1112basic_stringIcSt11char_traitsIcESaIcEEE(ptr noundef nonnull align 8 dereferenceable(40) %9, ptr noundef nonnull align 8 dereferenceable(32) getelementptr inbounds (%"class.opencc::Optional", ptr @_Z14outputFileNameB5cxx11, i64 0, i32 1, i32 0, i32 0))
          to label %10 unwind label %11

10:                                               ; preds = %8
  tail call void @__cxa_throw(ptr nonnull %9, ptr nonnull @_ZTIN6opencc15FileNotWritableE, ptr nonnull @_ZN6opencc15FileNotWritableD2Ev) #26
  unreachable

11:                                               ; preds = %8
  %12 = landingpad { ptr, i32 }
          cleanup
  tail call void @__cxa_free_exception(ptr %9) #25
  resume { ptr, i32 } %12

13:                                               ; preds = %5, %3
  %.0 = phi ptr [ %4, %3 ], [ %7, %5 ]
  ret ptr %.0
}